; Function Attrs: nounwind uwtable
define dso_local i32 @onig_new(ptr noundef captures(none) initializes((0, 8)) %0, ptr noundef %1, ptr noundef %2, i32 noundef %3, ptr noundef %4, ptr noundef %5, ptr noundef captures(address_is_null) %6) local_unnamed_addr #6 {
  %calloc = tail call dereferenceable_or_null(456) ptr @calloc(i64 1, i64 456)
  store ptr %calloc, ptr %0, align 8, !tbaa !172
  %8 = icmp eq ptr %calloc, null
  br i1 %8, label %44, label %9

9:                                                ; preds = %7
  %10 = load i32, ptr @OnigDefaultCaseFoldFlag, align 4, !tbaa !4
  %.b.i = load i1, ptr @onig_inited, align 4
  br i1 %.b.i, label %14, label %.lr.ph.i.i

.lr.ph.i.i:                                       ; preds = %9
  %11 = tail call i32 @onigenc_init() #22
  store i1 true, ptr @onig_inited, align 4
  %12 = tail call i32 @onig_initialize_encoding(ptr noundef %4) #22
  %.not.i.i = icmp eq i32 %12, 0
  br i1 %.not.i.i, label %13, label %19

13:                                               ; preds = %.lr.ph.i.i
  tail call void @onig_warning(ptr noundef nonnull @.str) #22
  br label %14

14:                                               ; preds = %13, %9
  %15 = icmp eq ptr %4, null
  br i1 %15, label %19, label %16

16:                                               ; preds = %14
  %17 = and i32 %3, 384
  %18 = icmp eq i32 %17, 384
  br i1 %18, label %19, label %21

19:                                               ; preds = %14, %16, %.lr.ph.i.i
  %.0.i.ph = phi i32 [ -23, %.lr.ph.i.i ], [ -403, %16 ], [ -21, %14 ]
  %20 = load ptr, ptr %0, align 8, !tbaa !172
  br label %.sink.split.sink.split

21:                                               ; preds = %16
  %22 = and i32 %3, 64
  %.not31.i = icmp eq i32 %22, 0
  %23 = getelementptr inbounds nuw i8, ptr %5, i64 12
  %24 = load i32, ptr %23, align 4, !tbaa !167
  %25 = or i32 %24, %3
  %26 = and i32 %25, -9
  %.028.i = select i1 %.not31.i, i32 %25, i32 %26
  %27 = and i32 %.028.i, 32768
  %.not32.i = icmp eq i32 %27, 0
  %28 = and i32 %10, -1074790402
  %29 = or disjoint i32 %28, 1
  %.029.i = select i1 %.not32.i, i32 %10, i32 %29
  %30 = getelementptr inbounds nuw i8, ptr %calloc, i64 96
  store ptr %4, ptr %30, align 8, !tbaa !13
  %31 = getelementptr inbounds nuw i8, ptr %calloc, i64 104
  store i32 %.028.i, ptr %31, align 8, !tbaa !105
  %32 = getelementptr inbounds nuw i8, ptr %calloc, i64 112
  store ptr %5, ptr %32, align 8, !tbaa !168
  %33 = getelementptr inbounds nuw i8, ptr %calloc, i64 136
  store i32 0, ptr %33, align 8, !tbaa !77
  %34 = getelementptr inbounds nuw i8, ptr %calloc, i64 160
  store ptr null, ptr %34, align 8, !tbaa !25
  %35 = getelementptr inbounds nuw i8, ptr %calloc, i64 448
  store ptr null, ptr %35, align 8, !tbaa !8
  store ptr null, ptr %calloc, align 8, !tbaa !17
  %36 = getelementptr inbounds nuw i8, ptr %calloc, i64 16
  %37 = getelementptr inbounds nuw i8, ptr %calloc, i64 128
  store ptr null, ptr %37, align 8, !tbaa !169
  %38 = getelementptr inbounds nuw i8, ptr %calloc, i64 120
  tail call void @llvm.memset.p0.i64(ptr noundef nonnull align 8 dereferenceable(16) %36, i8 0, i64 16, i1 false)
  store i32 %.029.i, ptr %38, align 8, !tbaa !50
  %39 = load ptr, ptr %0, align 8, !tbaa !172
  %40 = tail call i32 @onig_compile(ptr noundef %39, ptr noundef %1, ptr noundef %2, ptr noundef %6)
  %.not20 = icmp eq i32 %40, 0
  br i1 %.not20, label %44, label %41

41:                                               ; preds = %21
  %42 = load ptr, ptr %0, align 8, !tbaa !172
  %.not.i = icmp eq ptr %42, null
  br i1 %.not.i, label %.sink.split, label %43

43:                                               ; preds = %41
  tail call void @onig_free_body(ptr noundef nonnull %42)
  br label %.sink.split.sink.split

.sink.split.sink.split:                           ; preds = %19, %43
  %.sink = phi ptr [ %42, %43 ], [ %20, %19 ]
  %.0.ph.ph = phi i32 [ %40, %43 ], [ %.0.i.ph, %19 ]
  tail call void @free(ptr noundef %.sink) #22
  br label %.sink.split

.sink.split:                                      ; preds = %.sink.split.sink.split, %41
  %.0.ph = phi i32 [ %40, %41 ], [ %.0.ph.ph, %.sink.split.sink.split ]
  store ptr null, ptr %0, align 8, !tbaa !172
  br label %44

44:                                               ; preds = %.sink.split, %21, %7
  %.0 = phi i32 [ -5, %7 ], [ 0, %21 ], [ %.0.ph, %.sink.split ]
  ret i32 %.0
}